; Function Attrs: null_pointer_is_valid sspstrong uwtable
define internal noundef zeroext i1 @dissect_ocp1_heur_udp(ptr noundef %0, ptr noundef %1, ptr noundef %2, ptr readnone captures(none) %3) #0 {
  %5 = tail call fastcc zeroext i1 @test_ocp1(ptr noundef %0)
  br i1 %5, label %6, label %8

6:                                                ; preds = %4
  %7 = tail call i32 @dissect_ocp1(ptr noundef %0, ptr noundef %1, ptr noundef %2, ptr poison)
  br label %8

8:                                                ; preds = %4, %6
  ret i1 %5
}